#include <math.h>
#include <stdio.h>
#include <stdlib.h>
#include <string.h>


int main(){
    int n , m ;
	double sum , s[10000];
	s[1]=1;
	s[2]=2;
	for (int i=3 ; i<100 ; i++ ){
		s[i]=s[i-1]+s[i-2];
//		printf("%d %d\n",i , s[i]);
	}
	scanf("%d",&m);
	while(m--){
		scanf("\n%d",&n);
		sum=0;
		for (int i=1 ; i<=n ; i++ )sum+=s[i+1]/s[i];
		printf("%.3f\n",sum);
	}
	return 0;
}