; ModuleID = '29/1863.c'
source_filename = "29/1863.c"
target datalayout = "e-m:e-p270:32:32-p271:32:32-p272:64:64-i64:64-f80:128-n8:16:32:64-S128"
target triple = "x86_64-pc-linux-gnu"

@.str = private unnamed_addr constant [3 x i8] c"%d\00", align 1
@.str.1 = private unnamed_addr constant [4 x i8] c"\0A%d\00", align 1
@.str.2 = private unnamed_addr constant [6 x i8] c"%.3f\0A\00", align 1

; Function Attrs: noinline nounwind uwtable
define dso_local i32 @main() #0 {
  %1 = alloca i32, align 4
  %2 = alloca i32, align 4
  %3 = alloca i32, align 4
  %4 = alloca double, align 8
  %5 = alloca [10000 x double], align 16
  %6 = alloca i32, align 4
  %7 = alloca i32, align 4
  store i32 0, i32* %1, align 4
  %8 = getelementptr inbounds [10000 x double], [10000 x double]* %5, i64 0, i64 1
  store double 1.000000e+00, double* %8, align 8
  %9 = getelementptr inbounds [10000 x double], [10000 x double]* %5, i64 0, i64 2
  store double 2.000000e+00, double* %9, align 16
  store i32 3, i32* %6, align 4
  br label %10

10:                                               ; preds = %28, %0
  %11 = load i32, i32* %6, align 4
  %12 = icmp slt i32 %11, 100
  br i1 %12, label %13, label %31

13:                                               ; preds = %10
  %14 = load i32, i32* %6, align 4
  %15 = sub nsw i32 %14, 1
  %16 = sext i32 %15 to i64
  %17 = getelementptr inbounds [10000 x double], [10000 x double]* %5, i64 0, i64 %16
  %18 = load double, double* %17, align 8
  %19 = load i32, i32* %6, align 4
  %20 = sub nsw i32 %19, 2
  %21 = sext i32 %20 to i64
  %22 = getelementptr inbounds [10000 x double], [10000 x double]* %5, i64 0, i64 %21
  %23 = load double, double* %22, align 8
  %24 = fadd double %18, %23
  %25 = load i32, i32* %6, align 4
  %26 = sext i32 %25 to i64
  %27 = getelementptr inbounds [10000 x double], [10000 x double]* %5, i64 0, i64 %26
  store double %24, double* %27, align 8
  br label %28

28:                                               ; preds = %13
  %29 = load i32, i32* %6, align 4
  %30 = add nsw i32 %29, 1
  store i32 %30, i32* %6, align 4
  br label %10

31:                                               ; preds = %10
  %32 = call i32 (i8*, ...) @__isoc99_scanf(i8* getelementptr inbounds ([3 x i8], [3 x i8]* @.str, i64 0, i64 0), i32* %3)
  br label %33

33:                                               ; preds = %59, %31
  %34 = load i32, i32* %3, align 4
  %35 = add nsw i32 %34, -1
  store i32 %35, i32* %3, align 4
  %36 = icmp ne i32 %34, 0
  br i1 %36, label %37, label %62

37:                                               ; preds = %33
  %38 = call i32 (i8*, ...) @__isoc99_scanf(i8* getelementptr inbounds ([4 x i8], [4 x i8]* @.str.1, i64 0, i64 0), i32* %2)
  store double 0.000000e+00, double* %4, align 8
  store i32 1, i32* %7, align 4
  br label %39

39:                                               ; preds = %56, %37
  %40 = load i32, i32* %7, align 4
  %41 = load i32, i32* %2, align 4
  %42 = icmp sle i32 %40, %41
  br i1 %42, label %43, label %59

43:                                               ; preds = %39
  %44 = load i32, i32* %7, align 4
  %45 = add nsw i32 %44, 1
  %46 = sext i32 %45 to i64
  %47 = getelementptr inbounds [10000 x double], [10000 x double]* %5, i64 0, i64 %46
  %48 = load double, double* %47, align 8
  %49 = load i32, i32* %7, align 4
  %50 = sext i32 %49 to i64
  %51 = getelementptr inbounds [10000 x double], [10000 x double]* %5, i64 0, i64 %50
  %52 = load double, double* %51, align 8
  %53 = fdiv double %48, %52
  %54 = load double, double* %4, align 8
  %55 = fadd double %54, %53
  store double %55, double* %4, align 8
  br label %56

56:                                               ; preds = %43
  %57 = load i32, i32* %7, align 4
  %58 = add nsw i32 %57, 1
  store i32 %58, i32* %7, align 4
  br label %39

59:                                               ; preds = %39
  %60 = load double, double* %4, align 8
  %61 = call i32 (i8*, ...) @printf(i8* getelementptr inbounds ([6 x i8], [6 x i8]* @.str.2, i64 0, i64 0), double %60)
  br label %33

62:                                               ; preds = %33
  ret i32 0
}

declare dso_local i32 @__isoc99_scanf(i8*, ...) #1

declare dso_local i32 @printf(i8*, ...) #1


!llvm.module.flags = !{!0}
!llvm.ident = !{!1}

!0 = !{i32 1, !"wchar_size", i32 4}
!1 = !{!"clang version 10.0.0-4ubuntu1 "}
